target datalayout = "e-m:e-p270:32:32-p271:32:32-p272:64:64-i64:64-i128:128-f80:128-n8:16:32:64-S128"
target triple = "x86_64-pc-linux-gnu"

; Function Attrs: nounwind uwtable
define i64 @H5VM_hyper_stride(i32 noundef %0, ptr noundef %1, ptr noundef %2, ptr noundef %3, ptr noundef %4) #0 {
  %6 = alloca i32, align 4
  %7 = alloca ptr, align 8
  %8 = alloca ptr, align 8
  %9 = alloca ptr, align 8
  %10 = alloca ptr, align 8
  %11 = alloca i64, align 8
  %12 = alloca i64, align 8
  %13 = alloca i32, align 4
  %14 = alloca i64, align 8
  store i32 %0, ptr %6, align 4
  store ptr %1, ptr %7, align 8
  store ptr %2, ptr %8, align 8
  store ptr %3, ptr %9, align 8
  store ptr %4, ptr %10, align 8
  %15 = load ptr, ptr %10, align 8
  %16 = load i32, ptr %6, align 4
  %17 = sub i32 %16, 1
  %18 = zext i32 %17 to i64
  %19 = getelementptr inbounds i64, ptr %15, i64 %18
  store i64 1, ptr %19, align 8
  %20 = load ptr, ptr %9, align 8
  %21 = icmp ne ptr %20, null
  br i1 %21, label %22, label %29

22:                                               ; preds = %5
  %23 = load ptr, ptr %9, align 8
  %24 = load i32, ptr %6, align 4
  %25 = sub i32 %24, 1
  %26 = zext i32 %25 to i64
  %27 = getelementptr inbounds i64, ptr %23, i64 %26
  %28 = load i64, ptr %27, align 8
  br label %30

29:                                               ; preds = %5
  br label %30

30:                                               ; preds = %29, %22
  %31 = phi i64 [ %28, %22 ], [ 0, %29 ]
  store i64 %31, ptr %11, align 8
  %32 = load i32, ptr %6, align 4
  switch i32 %32, label %198 [
    i32 2, label %33
    i32 3, label %59
    i32 4, label %114
  ]

33:                                               ; preds = %30
  %34 = load ptr, ptr %8, align 8
  %35 = getelementptr inbounds i64, ptr %34, i64 1
  %36 = load i64, ptr %35, align 8
  %37 = load ptr, ptr %7, align 8
  %38 = getelementptr inbounds i64, ptr %37, i64 1
  %39 = load i64, ptr %38, align 8
  %40 = sub i64 %36, %39
  %41 = load ptr, ptr %10, align 8
  %42 = getelementptr inbounds i64, ptr %41, i64 0
  store i64 %40, ptr %42, align 8
  %43 = load ptr, ptr %8, align 8
  %44 = getelementptr inbounds i64, ptr %43, i64 1
  %45 = load i64, ptr %44, align 8
  store i64 %45, ptr %12, align 8
  %46 = load i64, ptr %12, align 8
  %47 = load ptr, ptr %9, align 8
  %48 = icmp ne ptr %47, null
  br i1 %48, label %49, label %53

49:                                               ; preds = %33
  %50 = load ptr, ptr %9, align 8
  %51 = getelementptr inbounds i64, ptr %50, i64 0
  %52 = load i64, ptr %51, align 8
  br label %54

53:                                               ; preds = %33
  br label %54

54:                                               ; preds = %53, %49
  %55 = phi i64 [ %52, %49 ], [ 0, %53 ]
  %56 = mul i64 %46, %55
  %57 = load i64, ptr %11, align 8
  %58 = add i64 %57, %56
  store i64 %58, ptr %11, align 8
  br label %251

59:                                               ; preds = %30
  %60 = load ptr, ptr %8, align 8
  %61 = getelementptr inbounds i64, ptr %60, i64 2
  %62 = load i64, ptr %61, align 8
  %63 = load ptr, ptr %7, align 8
  %64 = getelementptr inbounds i64, ptr %63, i64 2
  %65 = load i64, ptr %64, align 8
  %66 = sub i64 %62, %65
  %67 = load ptr, ptr %10, align 8
  %68 = getelementptr inbounds i64, ptr %67, i64 1
  store i64 %66, ptr %68, align 8
  %69 = load ptr, ptr %8, align 8
  %70 = getelementptr inbounds i64, ptr %69, i64 2
  %71 = load i64, ptr %70, align 8
  store i64 %71, ptr %12, align 8
  %72 = load i64, ptr %12, align 8
  %73 = load ptr, ptr %9, align 8
  %74 = icmp ne ptr %73, null
  br i1 %74, label %75, label %79

75:                                               ; preds = %59
  %76 = load ptr, ptr %9, align 8
  %77 = getelementptr inbounds i64, ptr %76, i64 1
  %78 = load i64, ptr %77, align 8
  br label %80

79:                                               ; preds = %59
  br label %80

80:                                               ; preds = %79, %75
  %81 = phi i64 [ %78, %75 ], [ 0, %79 ]
  %82 = mul i64 %72, %81
  %83 = load i64, ptr %11, align 8
  %84 = add i64 %83, %82
  store i64 %84, ptr %11, align 8
  %85 = load i64, ptr %12, align 8
  %86 = load ptr, ptr %8, align 8
  %87 = getelementptr inbounds i64, ptr %86, i64 1
  %88 = load i64, ptr %87, align 8
  %89 = load ptr, ptr %7, align 8
  %90 = getelementptr inbounds i64, ptr %89, i64 1
  %91 = load i64, ptr %90, align 8
  %92 = sub i64 %88, %91
  %93 = mul i64 %85, %92
  %94 = load ptr, ptr %10, align 8
  %95 = getelementptr inbounds i64, ptr %94, i64 0
  store i64 %93, ptr %95, align 8
  %96 = load ptr, ptr %8, align 8
  %97 = getelementptr inbounds i64, ptr %96, i64 1
  %98 = load i64, ptr %97, align 8
  %99 = load i64, ptr %12, align 8
  %100 = mul i64 %99, %98
  store i64 %100, ptr %12, align 8
  %101 = load i64, ptr %12, align 8
  %102 = load ptr, ptr %9, align 8
  %103 = icmp ne ptr %102, null
  br i1 %103, label %104, label %108

104:                                              ; preds = %80
  %105 = load ptr, ptr %9, align 8
  %106 = getelementptr inbounds i64, ptr %105, i64 0
  %107 = load i64, ptr %106, align 8
  br label %109

108:                                              ; preds = %80
  br label %109

109:                                              ; preds = %108, %104
  %110 = phi i64 [ %107, %104 ], [ 0, %108 ]
  %111 = mul i64 %101, %110
  %112 = load i64, ptr %11, align 8
  %113 = add i64 %112, %111
  store i64 %113, ptr %11, align 8
  br label %251

114:                                              ; preds = %30
  %115 = load ptr, ptr %8, align 8
  %116 = getelementptr inbounds i64, ptr %115, i64 3
  %117 = load i64, ptr %116, align 8
  %118 = load ptr, ptr %7, align 8
  %119 = getelementptr inbounds i64, ptr %118, i64 3
  %120 = load i64, ptr %119, align 8
  %121 = sub i64 %117, %120
  %122 = load ptr, ptr %10, align 8
  %123 = getelementptr inbounds i64, ptr %122, i64 2
  store i64 %121, ptr %123, align 8
  %124 = load ptr, ptr %8, align 8
  %125 = getelementptr inbounds i64, ptr %124, i64 3
  %126 = load i64, ptr %125, align 8
  store i64 %126, ptr %12, align 8
  %127 = load i64, ptr %12, align 8
  %128 = load ptr, ptr %9, align 8
  %129 = icmp ne ptr %128, null
  br i1 %129, label %130, label %134

130:                                              ; preds = %114
  %131 = load ptr, ptr %9, align 8
  %132 = getelementptr inbounds i64, ptr %131, i64 2
  %133 = load i64, ptr %132, align 8
  br label %135

134:                                              ; preds = %114
  br label %135

135:                                              ; preds = %134, %130
  %136 = phi i64 [ %133, %130 ], [ 0, %134 ]
  %137 = mul i64 %127, %136
  %138 = load i64, ptr %11, align 8
  %139 = add i64 %138, %137
  store i64 %139, ptr %11, align 8
  %140 = load i64, ptr %12, align 8
  %141 = load ptr, ptr %8, align 8
  %142 = getelementptr inbounds i64, ptr %141, i64 2
  %143 = load i64, ptr %142, align 8
  %144 = load ptr, ptr %7, align 8
  %145 = getelementptr inbounds i64, ptr %144, i64 2
  %146 = load i64, ptr %145, align 8
  %147 = sub i64 %143, %146
  %148 = mul i64 %140, %147
  %149 = load ptr, ptr %10, align 8
  %150 = getelementptr inbounds i64, ptr %149, i64 1
  store i64 %148, ptr %150, align 8
  %151 = load ptr, ptr %8, align 8
  %152 = getelementptr inbounds i64, ptr %151, i64 2
  %153 = load i64, ptr %152, align 8
  %154 = load i64, ptr %12, align 8
  %155 = mul i64 %154, %153
  store i64 %155, ptr %12, align 8
  %156 = load i64, ptr %12, align 8
  %157 = load ptr, ptr %9, align 8
  %158 = icmp ne ptr %157, null
  br i1 %158, label %159, label %163

159:                                              ; preds = %135
  %160 = load ptr, ptr %9, align 8
  %161 = getelementptr inbounds i64, ptr %160, i64 1
  %162 = load i64, ptr %161, align 8
  br label %164

163:                                              ; preds = %135
  br label %164

164:                                              ; preds = %163, %159
  %165 = phi i64 [ %162, %159 ], [ 0, %163 ]
  %166 = mul i64 %156, %165
  %167 = load i64, ptr %11, align 8
  %168 = add i64 %167, %166
  store i64 %168, ptr %11, align 8
  %169 = load i64, ptr %12, align 8
  %170 = load ptr, ptr %8, align 8
  %171 = getelementptr inbounds i64, ptr %170, i64 1
  %172 = load i64, ptr %171, align 8
  %173 = load ptr, ptr %7, align 8
  %174 = getelementptr inbounds i64, ptr %173, i64 1
  %175 = load i64, ptr %174, align 8
  %176 = sub i64 %172, %175
  %177 = mul i64 %169, %176
  %178 = load ptr, ptr %10, align 8
  %179 = getelementptr inbounds i64, ptr %178, i64 0
  store i64 %177, ptr %179, align 8
  %180 = load ptr, ptr %8, align 8
  %181 = getelementptr inbounds i64, ptr %180, i64 1
  %182 = load i64, ptr %181, align 8
  %183 = load i64, ptr %12, align 8
  %184 = mul i64 %183, %182
  store i64 %184, ptr %12, align 8
  %185 = load i64, ptr %12, align 8
  %186 = load ptr, ptr %9, align 8
  %187 = icmp ne ptr %186, null
  br i1 %187, label %188, label %192

188:                                              ; preds = %164
  %189 = load ptr, ptr %9, align 8
  %190 = getelementptr inbounds i64, ptr %189, i64 0
  %191 = load i64, ptr %190, align 8
  br label %193

192:                                              ; preds = %164
  br label %193

193:                                              ; preds = %192, %188
  %194 = phi i64 [ %191, %188 ], [ 0, %192 ]
  %195 = mul i64 %185, %194
  %196 = load i64, ptr %11, align 8
  %197 = add i64 %196, %195
  store i64 %197, ptr %11, align 8
  br label %251

198:                                              ; preds = %30
  %199 = load i32, ptr %6, align 4
  %200 = sub i32 %199, 2
  store i32 %200, ptr %13, align 4
  store i64 1, ptr %12, align 8
  br label %201

201:                                              ; preds = %247, %198
  %202 = load i32, ptr %13, align 4
  %203 = icmp sge i32 %202, 0
  br i1 %203, label %204, label %250

204:                                              ; preds = %201
  %205 = load i64, ptr %12, align 8
  %206 = load ptr, ptr %8, align 8
  %207 = load i32, ptr %13, align 4
  %208 = add nsw i32 %207, 1
  %209 = sext i32 %208 to i64
  %210 = getelementptr inbounds i64, ptr %206, i64 %209
  %211 = load i64, ptr %210, align 8
  %212 = load ptr, ptr %7, align 8
  %213 = load i32, ptr %13, align 4
  %214 = add nsw i32 %213, 1
  %215 = sext i32 %214 to i64
  %216 = getelementptr inbounds i64, ptr %212, i64 %215
  %217 = load i64, ptr %216, align 8
  %218 = sub i64 %211, %217
  %219 = mul i64 %205, %218
  %220 = load ptr, ptr %10, align 8
  %221 = load i32, ptr %13, align 4
  %222 = sext i32 %221 to i64
  %223 = getelementptr inbounds i64, ptr %220, i64 %222
  store i64 %219, ptr %223, align 8
  %224 = load ptr, ptr %8, align 8
  %225 = load i32, ptr %13, align 4
  %226 = add nsw i32 %225, 1
  %227 = sext i32 %226 to i64
  %228 = getelementptr inbounds i64, ptr %224, i64 %227
  %229 = load i64, ptr %228, align 8
  %230 = load i64, ptr %12, align 8
  %231 = mul i64 %230, %229
  store i64 %231, ptr %12, align 8
  %232 = load i64, ptr %12, align 8
  %233 = load ptr, ptr %9, align 8
  %234 = icmp ne ptr %233, null
  br i1 %234, label %235, label %241

235:                                              ; preds = %204
  %236 = load ptr, ptr %9, align 8
  %237 = load i32, ptr %13, align 4
  %238 = sext i32 %237 to i64
  %239 = getelementptr inbounds i64, ptr %236, i64 %238
  %240 = load i64, ptr %239, align 8
  br label %242

241:                                              ; preds = %204
  br label %242

242:                                              ; preds = %241, %235
  %243 = phi i64 [ %240, %235 ], [ 0, %241 ]
  %244 = mul i64 %232, %243
  %245 = load i64, ptr %11, align 8
  %246 = add i64 %245, %244
  store i64 %246, ptr %11, align 8
  br label %247

247:                                              ; preds = %242
  %248 = load i32, ptr %13, align 4
  %249 = add nsw i32 %248, -1
  store i32 %249, ptr %13, align 4
  br label %201

250:                                              ; preds = %201
  br label %251

251:                                              ; preds = %250, %193, %109, %54
  %252 = load i64, ptr %11, align 8
  store i64 %252, ptr %14, align 8
  %253 = load i64, ptr %14, align 8
  ret i64 %253
}