; Function Attrs: nofree norecurse nosync nounwind memory(read, argmem: readwrite, inaccessiblemem: none) uwtable
define i64 @H5VM_hyper_stride(i32 noundef %0, ptr nocapture noundef readonly %1, ptr nocapture noundef readonly %2, ptr noundef readonly %3, ptr nocapture noundef writeonly %4) local_unnamed_addr #0 {
  %6 = add i32 %0, -1
  %7 = zext i32 %6 to i64
  %8 = getelementptr inbounds i64, ptr %4, i64 %7
  store i64 1, ptr %8, align 8
  %.not = icmp eq ptr %3, null
  br i1 %.not, label %12, label %9

9:                                                ; preds = %5
  %10 = getelementptr inbounds i64, ptr %3, i64 %7
  %11 = load i64, ptr %10, align 8
  br label %12

12:                                               ; preds = %5, %9
  %13 = phi i64 [ %11, %9 ], [ 0, %5 ]
  switch i32 %0, label %103 [
    i32 2, label %14
    i32 3, label %27
    i32 4, label %57
  ]

14:                                               ; preds = %12
  %15 = getelementptr inbounds i8, ptr %2, i64 8
  %16 = load i64, ptr %15, align 8
  %17 = getelementptr inbounds i8, ptr %1, i64 8
  %18 = load i64, ptr %17, align 8
  %19 = sub i64 %16, %18
  store i64 %19, ptr %4, align 8
  %20 = load i64, ptr %15, align 8
  br i1 %.not, label %23, label %21

21:                                               ; preds = %14
  %22 = load i64, ptr %3, align 8
  br label %23

23:                                               ; preds = %14, %21
  %24 = phi i64 [ %22, %21 ], [ 0, %14 ]
  %25 = mul i64 %24, %20
  %26 = add i64 %25, %13
  br label %.loopexit

27:                                               ; preds = %12
  %28 = getelementptr inbounds i8, ptr %2, i64 16
  %29 = load i64, ptr %28, align 8
  %30 = getelementptr inbounds i8, ptr %1, i64 16
  %31 = load i64, ptr %30, align 8
  %32 = sub i64 %29, %31
  %33 = getelementptr inbounds i8, ptr %4, i64 8
  store i64 %32, ptr %33, align 8
  %34 = load i64, ptr %28, align 8
  br i1 %.not, label %.thread, label %41

.thread:                                          ; preds = %27
  %35 = getelementptr inbounds i8, ptr %2, i64 8
  %36 = load i64, ptr %35, align 8
  %37 = getelementptr inbounds i8, ptr %1, i64 8
  %38 = load i64, ptr %37, align 8
  %39 = sub i64 %36, %38
  %40 = mul i64 %39, %34
  store i64 %40, ptr %4, align 8
  br label %51

41:                                               ; preds = %27
  %42 = getelementptr inbounds i8, ptr %3, i64 8
  %43 = load i64, ptr %42, align 8
  %44 = getelementptr inbounds i8, ptr %2, i64 8
  %45 = load i64, ptr %44, align 8
  %46 = getelementptr inbounds i8, ptr %1, i64 8
  %47 = load i64, ptr %46, align 8
  %48 = sub i64 %45, %47
  %49 = mul i64 %48, %34
  store i64 %49, ptr %4, align 8
  %50 = load i64, ptr %3, align 8
  br label %51

51:                                               ; preds = %.thread, %41
  %.in95 = phi ptr [ %44, %41 ], [ %35, %.thread ]
  %52 = phi i64 [ %43, %41 ], [ 0, %.thread ]
  %53 = phi i64 [ %50, %41 ], [ 0, %.thread ]
  %54 = load i64, ptr %.in95, align 8
  %55 = mul i64 %53, %54
  %reass.add83 = add i64 %55, %52
  %reass.mul84 = mul i64 %reass.add83, %34
  %56 = add i64 %reass.mul84, %13
  br label %.loopexit

57:                                               ; preds = %12
  %58 = getelementptr inbounds i8, ptr %2, i64 24
  %59 = load i64, ptr %58, align 8
  %60 = getelementptr inbounds i8, ptr %1, i64 24
  %61 = load i64, ptr %60, align 8
  %62 = sub i64 %59, %61
  %63 = getelementptr inbounds i8, ptr %4, i64 16
  store i64 %62, ptr %63, align 8
  %64 = load i64, ptr %58, align 8
  br i1 %.not, label %68, label %65

65:                                               ; preds = %57
  %66 = getelementptr inbounds i8, ptr %3, i64 16
  %67 = load i64, ptr %66, align 8
  br label %68

68:                                               ; preds = %57, %65
  %69 = phi i64 [ %67, %65 ], [ 0, %57 ]
  %70 = mul i64 %69, %64
  %71 = getelementptr inbounds i8, ptr %2, i64 16
  %72 = load i64, ptr %71, align 8
  %73 = getelementptr inbounds i8, ptr %1, i64 16
  %74 = load i64, ptr %73, align 8
  %75 = sub i64 %72, %74
  %76 = mul i64 %75, %64
  %77 = getelementptr inbounds i8, ptr %4, i64 8
  store i64 %76, ptr %77, align 8
  %78 = load i64, ptr %71, align 8
  %79 = mul i64 %78, %64
  br i1 %.not, label %.thread93, label %86

.thread93:                                        ; preds = %68
  %80 = getelementptr inbounds i8, ptr %2, i64 8
  %81 = load i64, ptr %80, align 8
  %82 = getelementptr inbounds i8, ptr %1, i64 8
  %83 = load i64, ptr %82, align 8
  %84 = sub i64 %81, %83
  %85 = mul i64 %84, %79
  store i64 %85, ptr %4, align 8
  br label %96

86:                                               ; preds = %68
  %87 = getelementptr inbounds i8, ptr %3, i64 8
  %88 = load i64, ptr %87, align 8
  %89 = getelementptr inbounds i8, ptr %2, i64 8
  %90 = load i64, ptr %89, align 8
  %91 = getelementptr inbounds i8, ptr %1, i64 8
  %92 = load i64, ptr %91, align 8
  %93 = sub i64 %90, %92
  %94 = mul i64 %93, %79
  store i64 %94, ptr %4, align 8
  %95 = load i64, ptr %3, align 8
  br label %96

96:                                               ; preds = %.thread93, %86
  %.in = phi ptr [ %89, %86 ], [ %80, %.thread93 ]
  %97 = phi i64 [ %88, %86 ], [ 0, %.thread93 ]
  %98 = phi i64 [ %95, %86 ], [ 0, %.thread93 ]
  %99 = load i64, ptr %.in, align 8
  %100 = mul i64 %98, %99
  %reass.add = add i64 %100, %97
  %reass.mul = mul i64 %reass.add, %79
  %101 = add i64 %70, %13
  %102 = add i64 %101, %reass.mul
  br label %.loopexit

103:                                              ; preds = %12
  %104 = add i32 %0, -2
  %105 = icmp sgt i32 %104, -1
  br i1 %105, label %.lr.ph, label %.loopexit

.lr.ph:                                           ; preds = %103
  %106 = zext nneg i32 %104 to i64
  br i1 %.not, label %.lr.ph.split.us, label %.lr.ph.split

.lr.ph.split.us:                                  ; preds = %.lr.ph, %.lr.ph.split.us
  %indvars.iv90 = phi i64 [ %indvars.iv.next91, %.lr.ph.split.us ], [ %106, %.lr.ph ]
  %.08085.us = phi i64 [ %116, %.lr.ph.split.us ], [ 1, %.lr.ph ]
  %107 = add nuw nsw i64 %indvars.iv90, 1
  %108 = getelementptr inbounds i64, ptr %2, i64 %107
  %109 = load i64, ptr %108, align 8
  %110 = getelementptr inbounds i64, ptr %1, i64 %107
  %111 = load i64, ptr %110, align 8
  %112 = sub i64 %109, %111
  %113 = mul i64 %112, %.08085.us
  %114 = getelementptr inbounds i64, ptr %4, i64 %indvars.iv90
  store i64 %113, ptr %114, align 8
  %115 = load i64, ptr %108, align 8
  %116 = mul i64 %115, %.08085.us
  %indvars.iv.next91 = add nsw i64 %indvars.iv90, -1
  %.not97 = icmp eq i64 %indvars.iv90, 0
  br i1 %.not97, label %.loopexit, label %.lr.ph.split.us

.lr.ph.split:                                     ; preds = %.lr.ph, %.lr.ph.split
  %indvars.iv = phi i64 [ %indvars.iv.next, %.lr.ph.split ], [ %106, %.lr.ph ]
  %.087 = phi i64 [ %130, %.lr.ph.split ], [ %13, %.lr.ph ]
  %.08085 = phi i64 [ %126, %.lr.ph.split ], [ 1, %.lr.ph ]
  %117 = add nuw nsw i64 %indvars.iv, 1
  %118 = getelementptr inbounds i64, ptr %2, i64 %117
  %119 = load i64, ptr %118, align 8
  %120 = getelementptr inbounds i64, ptr %1, i64 %117
  %121 = load i64, ptr %120, align 8
  %122 = sub i64 %119, %121
  %123 = mul i64 %122, %.08085
  %124 = getelementptr inbounds i64, ptr %4, i64 %indvars.iv
  store i64 %123, ptr %124, align 8
  %125 = load i64, ptr %118, align 8
  %126 = mul i64 %125, %.08085
  %127 = getelementptr inbounds i64, ptr %3, i64 %indvars.iv
  %128 = load i64, ptr %127, align 8
  %129 = mul i64 %128, %126
  %130 = add i64 %129, %.087
  %indvars.iv.next = add nsw i64 %indvars.iv, -1
  %.not96 = icmp eq i64 %indvars.iv, 0
  br i1 %.not96, label %.loopexit, label %.lr.ph.split

.loopexit:                                        ; preds = %.lr.ph.split, %.lr.ph.split.us, %103, %96, %51, %23
  %.1 = phi i64 [ %102, %96 ], [ %56, %51 ], [ %26, %23 ], [ %13, %103 ], [ %13, %.lr.ph.split.us ], [ %130, %.lr.ph.split ]
  ret i64 %.1
}